; Function Attrs: mustprogress nounwind uwtable
define internal noundef i32 @_ZN4node12_GLOBAL__N_16Parser5ProxyIMS1_FiPKcmEXadL_ZNS1_7on_bodyES4_mEEE3RawEP18llhttp__internal_sS4_m(ptr noundef %p, ptr noundef %args, i64 noundef %args1) #3 align 2 {
entry:
  %handle_scope.i = alloca %"class.v8::HandleScope", align 8
  %buffer.i = alloca %"class.v8::Local.0", align 8
  %0 = ptrtoint ptr %p to i64
  %sub.i.i = add i64 %0, -80
  %1 = inttoptr i64 %sub.i.i to ptr
  call void @llvm.lifetime.start.p0(i64 24, ptr nonnull %handle_scope.i)
  call void @llvm.lifetime.start.p0(i64 8, ptr nonnull %buffer.i)
  %cmp.i = icmp eq i64 %args1, 0
  br i1 %cmp.i, label %_ZN4node12_GLOBAL__N_16Parser7on_bodyEPKcm.exit.thread, label %if.end.i

_ZN4node12_GLOBAL__N_16Parser7on_bodyEPKcm.exit.thread: ; preds = %entry
  call void @llvm.lifetime.end.p0(i64 24, ptr nonnull %handle_scope.i)
  call void @llvm.lifetime.end.p0(i64 8, ptr nonnull %buffer.i)
  br label %if.then

if.end.i:                                         ; preds = %entry
  %realm_.i.i = getelementptr inbounds i8, ptr %1, i64 16
  %2 = load ptr, ptr %realm_.i.i, align 8
  %env_.i.i.i = getelementptr inbounds i8, ptr %2, i64 176
  %3 = load ptr, ptr %env_.i.i.i, align 8
  %isolate_.i.i = getelementptr inbounds i8, ptr %3, i64 88
  %4 = load ptr, ptr %isolate_.i.i, align 8
  call void @_ZN2v811HandleScopeC1EPNS_7IsolateE(ptr noundef nonnull align 8 dereferenceable(24) %handle_scope.i, ptr noundef %4) #20
  %5 = load ptr, ptr %realm_.i.i, align 8
  %env_.i.i.i.i = getelementptr inbounds i8, ptr %5, i64 176
  %6 = load ptr, ptr %env_.i.i.i.i, align 8
  %isolate_.i.i.i = getelementptr inbounds i8, ptr %6, i64 88
  %7 = load ptr, ptr %isolate_.i.i.i, align 8
  %persistent_handle_.i.i = getelementptr inbounds i8, ptr %1, i64 8
  %8 = load ptr, ptr %persistent_handle_.i.i, align 8
  %cmp.i.i.i.i.i = icmp eq ptr %8, null
  br i1 %cmp.i.i.i.i.i, label %_ZNK4node10BaseObject6objectEv.exit.i, label %if.end.i.i.i.i

if.end.i.i.i.i:                                   ; preds = %if.end.i
  %add.ptr.i.i.i.i = getelementptr inbounds i8, ptr %8, i64 11
  %9 = load i8, ptr %add.ptr.i.i.i.i, align 1
  %10 = and i8 %9, 3
  %cmp.i.i.i.i = icmp eq i8 %10, 2
  br i1 %cmp.i.i.i.i, label %_ZN4node17PersistentToLocal4WeakIN2v86ObjectEEENS2_5LocalIT_EEPNS2_7IsolateERKNS2_14PersistentBaseIS5_EE.exit.i.i.i, label %_ZNK4node10BaseObject6objectEv.exit.i

_ZN4node17PersistentToLocal4WeakIN2v86ObjectEEENS2_5LocalIT_EEPNS2_7IsolateERKNS2_14PersistentBaseIS5_EE.exit.i.i.i: ; preds = %if.end.i.i.i.i
  %11 = load i64, ptr %8, align 8
  %call.i.i.i.i.i = call noundef ptr @_ZN2v811HandleScope12CreateHandleEPNS_8internal7IsolateEm(ptr noundef %7, i64 noundef %11) #20
  br label %_ZNK4node10BaseObject6objectEv.exit.i

_ZNK4node10BaseObject6objectEv.exit.i:            ; preds = %_ZN4node17PersistentToLocal4WeakIN2v86ObjectEEENS2_5LocalIT_EEPNS2_7IsolateERKNS2_14PersistentBaseIS5_EE.exit.i.i.i, %if.end.i.i.i.i, %if.end.i
  %retval.sroa.0.0.i.i.i = phi ptr [ %call.i.i.i.i.i, %_ZN4node17PersistentToLocal4WeakIN2v86ObjectEEENS2_5LocalIT_EEPNS2_7IsolateERKNS2_14PersistentBaseIS5_EE.exit.i.i.i ], [ null, %if.end.i ], [ %8, %if.end.i.i.i.i ]
  %principal_realm_.i.i.i = getelementptr inbounds i8, ptr %3, i64 2728
  %12 = load ptr, ptr %principal_realm_.i.i.i, align 8
  %vtable.i.i = load ptr, ptr %12, align 8
  %vfn.i.i = getelementptr inbounds i8, ptr %vtable.i.i, i64 64
  %13 = load ptr, ptr %vfn.i.i, align 8
  %call2.i.i = call ptr %13(ptr noundef nonnull align 8 dereferenceable(872) %12) #20
  %call15.i = call ptr @_ZN2v86Object3GetENS_5LocalINS_7ContextEEEj(ptr noundef nonnull align 1 dereferenceable(1) %retval.sroa.0.0.i.i.i, ptr %call2.i.i, i32 noundef 3) #20
  %cmp.i.i84.i = icmp eq ptr %call15.i, null
  br i1 %cmp.i.i84.i, label %if.then.i.i, label %_ZN2v810MaybeLocalINS_5ValueEE14ToLocalCheckedEv.exit.i

if.then.i.i:                                      ; preds = %_ZNK4node10BaseObject6objectEv.exit.i
  call void @_ZN2v812api_internal12ToLocalEmptyEv() #20
  br label %_ZN2v810MaybeLocalINS_5ValueEE14ToLocalCheckedEv.exit.i

_ZN2v810MaybeLocalINS_5ValueEE14ToLocalCheckedEv.exit.i: ; preds = %if.then.i.i, %_ZNK4node10BaseObject6objectEv.exit.i
  %call25.i = call noundef zeroext i1 @_ZNK2v85Value10IsFunctionEv(ptr noundef nonnull align 1 dereferenceable(1) %call15.i) #20
  br i1 %call25.i, label %if.end27.i, label %_ZN4node12_GLOBAL__N_16Parser7on_bodyEPKcm.exit.thread8

if.end27.i:                                       ; preds = %_ZN2v810MaybeLocalINS_5ValueEE14ToLocalCheckedEv.exit.i
  %call30.i = call ptr @_ZN4node6Buffer4CopyEPNS_11EnvironmentEPKcm(ptr noundef nonnull %3, ptr noundef %args, i64 noundef %args1) #20
  %cmp.i.i.i = icmp eq ptr %call30.i, null
  br i1 %cmp.i.i.i, label %if.then.i73.i, label %_ZN2v810MaybeLocalINS_6ObjectEE14ToLocalCheckedEv.exit.i

if.then.i73.i:                                    ; preds = %if.end27.i
  call void @_ZN2v812api_internal12ToLocalEmptyEv() #20
  br label %_ZN2v810MaybeLocalINS_6ObjectEE14ToLocalCheckedEv.exit.i

_ZN2v810MaybeLocalINS_6ObjectEE14ToLocalCheckedEv.exit.i: ; preds = %if.then.i73.i, %if.end27.i
  store ptr %call30.i, ptr %buffer.i, align 8
  %call50.i = call ptr @_ZN4node9AsyncWrap12MakeCallbackEN2v85LocalINS1_8FunctionEEEiPNS2_INS1_5ValueEEE(ptr noundef nonnull align 8 dereferenceable(56) %1, ptr nonnull %call15.i, i32 noundef 1, ptr noundef nonnull %buffer.i) #20
  %cmp.i.i89.i = icmp eq ptr %call50.i, null
  br i1 %cmp.i.i89.i, label %_ZN4node12_GLOBAL__N_16Parser7on_bodyEPKcm.exit, label %_ZN4node12_GLOBAL__N_16Parser7on_bodyEPKcm.exit.thread8

_ZN4node12_GLOBAL__N_16Parser7on_bodyEPKcm.exit.thread8: ; preds = %_ZN2v810MaybeLocalINS_5ValueEE14ToLocalCheckedEv.exit.i, %_ZN2v810MaybeLocalINS_6ObjectEE14ToLocalCheckedEv.exit.i
  call void @_ZN2v811HandleScopeD1Ev(ptr noundef nonnull align 8 dereferenceable(24) %handle_scope.i) #20
  call void @llvm.lifetime.end.p0(i64 24, ptr nonnull %handle_scope.i)
  call void @llvm.lifetime.end.p0(i64 8, ptr nonnull %buffer.i)
  br label %if.then

_ZN4node12_GLOBAL__N_16Parser7on_bodyEPKcm.exit:  ; preds = %_ZN2v810MaybeLocalINS_6ObjectEE14ToLocalCheckedEv.exit.i
  %got_exception_.i = getelementptr inbounds i8, ptr %1, i64 1777
  store i8 1, ptr %got_exception_.i, align 1
  %parser_.i = getelementptr inbounds i8, ptr %1, i64 80
  call void @llhttp_set_error_reason(ptr noundef nonnull %parser_.i, ptr noundef nonnull @.str.135) #20
  call void @_ZN2v811HandleScopeD1Ev(ptr noundef nonnull align 8 dereferenceable(24) %handle_scope.i) #20
  call void @llvm.lifetime.end.p0(i64 24, ptr nonnull %handle_scope.i)
  call void @llvm.lifetime.end.p0(i64 8, ptr nonnull %buffer.i)
  br label %if.end

if.then:                                          ; preds = %_ZN4node12_GLOBAL__N_16Parser7on_bodyEPKcm.exit.thread8, %_ZN4node12_GLOBAL__N_16Parser7on_bodyEPKcm.exit.thread
  %pending_pause_.i = getelementptr inbounds i8, ptr %1, i64 1801
  %14 = load i8, ptr %pending_pause_.i, align 1
  %15 = and i8 %14, 1
  %tobool.not.i = icmp eq i8 %15, 0
  br i1 %tobool.not.i, label %if.end, label %if.end.i3

if.end.i3:                                        ; preds = %if.then
  store i8 0, ptr %pending_pause_.i, align 1
  %parser_.i4 = getelementptr inbounds i8, ptr %1, i64 80
  call void @llhttp_set_error_reason(ptr noundef nonnull %parser_.i4, ptr noundef nonnull @.str.123) #20
  br label %if.end

if.end:                                           ; preds = %if.end.i3, %if.then, %_ZN4node12_GLOBAL__N_16Parser7on_bodyEPKcm.exit
  %rv.0 = phi i32 [ 24, %_ZN4node12_GLOBAL__N_16Parser7on_bodyEPKcm.exit ], [ 21, %if.end.i3 ], [ 0, %if.then ]
  ret i32 %rv.0
}